(lp0
Vfilm
p1
aVmovi
p2
aVone
p3
aVmake
p4
aVlike
p5
aVstori
p6
aVperform
p7
aVtime
p8
aVcharact
p9
aVgood
p10
aVwork
p11
aVcomedi
p12
aVlove
p13
aVway
p14
aVwell
p15
aVeven
p16
aVfunni
p17
aVdirector
p18
aVbest
p19
aVlife
p20
aVlook
p21
aVentertain
p22
aVus
p23
aVmuch
p24
aVyear
p25
aVfeel
p26
aVmay
p27
aVtake
p28
aVcome
p29
aVsee
p30
aVlittl
p31
aVget
p32
aVenough
p33
aVgive
p34
aVdrama
p35
aVstill
p36
aVheart
p37
aVbeauti
p38
aVfun
p39
aVnew
p40
aVenjoy
p41
aVnever
p42
aVcast
p43
aVworld
p44
aVgreat
p45
aVpower
p46
aVlive
p47
aVact
p48
aVemot
p49
aVhuman
p50
aVmovi
p51
aVfilm
p52
aVlike
p53
aVone
p54
aVmake
p55
aVtime
p56
aVcharact
p57
aVstori
p58
aVmuch
p59
aVbad
p60
aVfeel
p61
aVeven
p62
aVgood
p63
aVcomedi
p64
aVget
p65
aVlittl
p66
aVthing
p67
aVdirector
p68
aVwould
p69
aVseem
p70
aVnever
p71
aVwell
p72
aVplot
p73
aVwork
p74
aVway
p75
aVcome
p76
aVlook
p77
aVend
p78
aVenough
p79
aVminut
p80
aVaction
p81
aVrealli
p82
aVmade
p83
aVnoth
p84
aVgo
p85
aVlong
p86
aVwatch
p87
aVinterest
p88
aVsometh
p89
aVcould
p90
aVeveri
p91
aVscript
p92
aVtake
p93
aVfunni
p94
aVact
p95
aVperform
p96
aVlack
p97
aVaudienc
p98
aVplay
p99
aVtri
p100
a.